; Function Attrs: mustprogress nofree norecurse nosync nounwind willreturn memory(read, argmem: readwrite, inaccessiblemem: none) uwtable
define noundef zeroext i1 @_ZN4base14PickleIterator8ReadDataEPPKcPi(ptr noundef nonnull align 8 captures(none) dereferenceable(24) %0, ptr noundef writeonly captures(none) initializes((0, 8)) %1, ptr noundef writeonly captures(none) initializes((0, 4)) %2) local_unnamed_addr #4 align 2 {
  store i32 0, ptr %2, align 4, !tbaa !27
  store ptr null, ptr %1, align 8, !tbaa !34
  %4 = getelementptr inbounds nuw i8, ptr %0, i64 16
  %5 = load i64, ptr %4, align 8, !tbaa !22
  %6 = getelementptr inbounds nuw i8, ptr %0, i64 8
  %7 = load i64, ptr %6, align 8, !tbaa !21
  %8 = sub i64 %5, %7
  %9 = icmp ult i64 %8, 4
  %10 = load ptr, ptr %0, align 8
  %11 = add i64 %7, 4
  %storemerge.i.i.i = select i1 %9, i64 %5, i64 %11
  store i64 %storemerge.i.i.i, ptr %6, align 8, !tbaa !21
  %.not.i.i.not8 = icmp eq ptr %10, null
  %.not.i.i.not = select i1 %9, i1 true, i1 %.not.i.i.not8
  br i1 %.not.i.i.not, label %_ZN4base14PickleIterator7ReadIntEPi.exit, label %12

12:                                               ; preds = %3
  %13 = getelementptr inbounds nuw i8, ptr %10, i64 %7
  %14 = load i32, ptr %13, align 4, !tbaa !27
  store i32 %14, ptr %2, align 4, !tbaa !27
  %15 = icmp slt i32 %14, 0
  br i1 %15, label %_ZN4base14PickleIterator24GetReadPointerAndAdvanceEi.exit.thread.i, label %16

16:                                               ; preds = %12
  %17 = sub i64 %5, %11
  %18 = zext nneg i32 %14 to i64
  %19 = icmp ult i64 %17, %18
  br i1 %19, label %_ZN4base14PickleIterator24GetReadPointerAndAdvanceEi.exit.thread.i, label %_ZN4base14PickleIterator24GetReadPointerAndAdvanceEi.exit.i

_ZN4base14PickleIterator24GetReadPointerAndAdvanceEi.exit.thread.i: ; preds = %16, %12
  store i64 %5, ptr %6, align 8, !tbaa !21
  br label %_ZN4base14PickleIterator7ReadIntEPi.exit

_ZN4base14PickleIterator24GetReadPointerAndAdvanceEi.exit.i: ; preds = %16
  %20 = add nuw nsw i64 %18, 3
  %21 = and i64 %20, 4294967292
  %22 = icmp ult i64 %17, %21
  %23 = add i64 %21, %11
  %storemerge.i.i.i7 = select i1 %22, i64 %5, i64 %23
  store i64 %storemerge.i.i.i7, ptr %6, align 8, !tbaa !21
  %24 = getelementptr inbounds nuw i8, ptr %10, i64 %11
  store ptr %24, ptr %1, align 8, !tbaa !34
  br label %_ZN4base14PickleIterator7ReadIntEPi.exit

_ZN4base14PickleIterator7ReadIntEPi.exit:         ; preds = %_ZN4base14PickleIterator24GetReadPointerAndAdvanceEi.exit.i, %_ZN4base14PickleIterator24GetReadPointerAndAdvanceEi.exit.thread.i, %3
  %.0 = phi i1 [ false, %3 ], [ false, %_ZN4base14PickleIterator24GetReadPointerAndAdvanceEi.exit.thread.i ], [ true, %_ZN4base14PickleIterator24GetReadPointerAndAdvanceEi.exit.i ]
  ret i1 %.0
}